target datalayout = "e-m:e-p270:32:32-p271:32:32-p272:64:64-i64:64-i128:128-f80:128-n8:16:32:64-S128"
target triple = "x86_64-pc-linux-gnu"

%"struct.cvc5::internal::Minisat::Lit" = type { i32 }
%"struct.cvc5::internal::Minisat::Solver::WatcherDeleted" = type { ptr }
%"struct.cvc5::internal::Minisat::Solver::VarOrderLt" = type { ptr }
%"class.cvc5::internal::Minisat::Solver" = type <{ %"class.cvc5::internal::EnvObj", ptr, ptr, i32, i32, i32, [4 x i8], %"class.std::unique_ptr", i8, [7 x i8], %"class.cvc5::internal::Minisat::vec", %"class.cvc5::internal::Minisat::vec.2", i8, i8, [6 x i8], %"class.cvc5::internal::Minisat::vec.3", %"class.cvc5::internal::Minisat::vec.4", i32, [4 x i8], double, double, double, double, i8, [3 x i8], i32, i32, i8, i8, [2 x i8], double, i32, [4 x i8], double, double, double, i32, [4 x i8], double, i64, i64, i64, i64, i64, i64, i64, i64, i64, i64, i64, i64, i8, [7 x i8], %"class.cvc5::internal::Minisat::vec.5", %"class.cvc5::internal::Minisat::vec.5", double, %"class.cvc5::internal::Minisat::vec.6", double, %"class.cvc5::internal::Minisat::OccLists", %"class.cvc5::internal::Minisat::vec.3", %"class.cvc5::internal::Minisat::vec.9", %"class.cvc5::internal::Minisat::vec.8", %"class.cvc5::internal::Minisat::vec.8", %"class.cvc5::internal::Minisat::vec.9", %"class.cvc5::internal::Minisat::vec.4", %"class.cvc5::internal::Minisat::vec.9", %"class.cvc5::internal::Minisat::vec.2", %"class.cvc5::internal::Minisat::vec.10", i32, i32, i64, %"class.cvc5::internal::Minisat::vec.4", %"class.cvc5::internal::Minisat::Heap", double, i8, [7 x i8], %"class.cvc5::internal::Minisat::ClauseAllocator", %"class.cvc5::internal::Minisat::vec.2", %"class.cvc5::internal::Minisat::vec.8", %"class.cvc5::internal::Minisat::vec.4", %"class.cvc5::internal::Minisat::vec.4", %"class.cvc5::internal::Minisat::vec.4", double, double, i32, [4 x i8], i64, i64, i8, i8, [6 x i8] }>
%"class.cvc5::internal::EnvObj" = type { ptr, ptr }
%"class.std::unique_ptr" = type { %"struct.std::__uniq_ptr_data" }
%"struct.std::__uniq_ptr_data" = type { %"class.std::__uniq_ptr_impl" }
%"class.std::__uniq_ptr_impl" = type { %"class.std::tuple" }
%"class.std::tuple" = type { %"struct.std::_Tuple_impl" }
%"struct.std::_Tuple_impl" = type { %"struct.std::_Head_base.1" }
%"struct.std::_Head_base.1" = type { ptr }
%"class.cvc5::internal::Minisat::vec" = type { ptr, i32, i32 }
%"class.cvc5::internal::Minisat::vec.5" = type { ptr, i32, i32 }
%"class.cvc5::internal::Minisat::vec.6" = type { ptr, i32, i32 }
%"class.cvc5::internal::Minisat::OccLists" = type { %"class.cvc5::internal::Minisat::vec.7", %"class.cvc5::internal::Minisat::vec.8", %"class.cvc5::internal::Minisat::vec.4", %"struct.cvc5::internal::Minisat::Solver::WatcherDeleted" }
%"class.cvc5::internal::Minisat::vec.7" = type { ptr, i32, i32 }
%"class.cvc5::internal::Minisat::vec.3" = type { ptr, i32, i32 }
%"class.cvc5::internal::Minisat::vec.9" = type { ptr, i32, i32 }
%"class.cvc5::internal::Minisat::vec.10" = type { ptr, i32, i32 }
%"class.cvc5::internal::Minisat::Heap" = type { %"struct.cvc5::internal::Minisat::Solver::VarOrderLt", %"class.cvc5::internal::Minisat::vec.9", %"class.cvc5::internal::Minisat::vec.9" }
%"class.cvc5::internal::Minisat::ClauseAllocator" = type { %"class.cvc5::internal::Minisat::RegionAllocator.base", i8, [3 x i8] }
%"class.cvc5::internal::Minisat::RegionAllocator.base" = type <{ ptr, i32, i32, i32 }>
%"class.cvc5::internal::Minisat::vec.2" = type { ptr, i32, i32 }
%"class.cvc5::internal::Minisat::vec.8" = type { ptr, i32, i32 }
%"class.cvc5::internal::Minisat::vec.4" = type { ptr, i32, i32 }
%"class.cvc5::internal::Minisat::lbool" = type { i8 }
%"class.cvc5::internal::Minisat::Clause" = type { %struct.anon, [0 x %union.anon.431] }
%struct.anon = type { i64 }
%union.anon.431 = type { %"struct.cvc5::internal::Minisat::Lit" }

; Function Attrs: mustprogress uwtable
define linkonce_odr hidden i8 @_ZNK4cvc58internal7Minisat5lbooleoEb(ptr noundef nonnull align 1 dereferenceable(1) %0, i1 noundef zeroext %1) #6 comdat align 2 {
  %3 = alloca %"class.cvc5::internal::Minisat::lbool", align 1
  %4 = alloca ptr, align 8
  %5 = alloca i8, align 1
  store ptr %0, ptr %4, align 8, !tbaa !227
  %6 = zext i1 %1 to i8
  store i8 %6, ptr %5, align 1, !tbaa !10
  %7 = load ptr, ptr %4, align 8
  %8 = getelementptr inbounds nuw %"class.cvc5::internal::Minisat::lbool", ptr %7, i32 0, i32 0
  %9 = load i8, ptr %8, align 1, !tbaa !228
  %10 = zext i8 %9 to i32
  %11 = load i8, ptr %5, align 1, !tbaa !10, !range !12, !noundef !13
  %12 = trunc i8 %11 to i1
  %13 = zext i1 %12 to i8
  %14 = zext i8 %13 to i32
  %15 = xor i32 %10, %14
  %16 = trunc i32 %15 to i8
  call void @_ZN4cvc58internal7Minisat5lboolC2Eh(ptr noundef nonnull align 1 dereferenceable(1) %3, i8 noundef zeroext %16)
  %17 = getelementptr inbounds nuw %"class.cvc5::internal::Minisat::lbool", ptr %3, i32 0, i32 0
  %18 = load i8, ptr %17, align 1
  ret i8 %18
}

; Function Attrs: inlinehint mustprogress nounwind uwtable
define linkonce_odr hidden noundef zeroext i1 @_ZN4cvc58internal7Minisat4signENS1_3LitE(i32 %0) #9 comdat {
  %2 = alloca %"struct.cvc5::internal::Minisat::Lit", align 4
  %3 = getelementptr inbounds nuw %"struct.cvc5::internal::Minisat::Lit", ptr %2, i32 0, i32 0
  store i32 %0, ptr %3, align 4
  %4 = getelementptr inbounds nuw %"struct.cvc5::internal::Minisat::Lit", ptr %2, i32 0, i32 0
  %5 = load i32, ptr %4, align 4, !tbaa !217
  %6 = and i32 %5, 1
  %7 = icmp ne i32 %6, 0
  ret i1 %7
}

; Function Attrs: mustprogress nounwind uwtable
define linkonce_odr hidden noundef nonnull align 1 dereferenceable(1) ptr @_ZNK4cvc58internal7Minisat3vecINS1_5lboolEEixEi(ptr noundef nonnull align 8 dereferenceable(16) %0, i32 noundef %1) #4 comdat align 2 {
  %3 = alloca ptr, align 8
  %4 = alloca i32, align 4
  store ptr %0, ptr %3, align 8, !tbaa !161
  store i32 %1, ptr %4, align 4, !tbaa !37
  %5 = load ptr, ptr %3, align 8
  %6 = getelementptr inbounds nuw %"class.cvc5::internal::Minisat::vec.3", ptr %5, i32 0, i32 0
  %7 = load ptr, ptr %6, align 8, !tbaa !163
  %8 = load i32, ptr %4, align 4, !tbaa !37
  %9 = sext i32 %8 to i64
  %10 = getelementptr inbounds %"class.cvc5::internal::Minisat::lbool", ptr %7, i64 %9
  ret ptr %10
}

; Function Attrs: inlinehint mustprogress nounwind uwtable
define linkonce_odr hidden noundef i32 @_ZN4cvc58internal7Minisat3varENS1_3LitE(i32 %0) #9 comdat {
  %2 = alloca %"struct.cvc5::internal::Minisat::Lit", align 4
  %3 = getelementptr inbounds nuw %"struct.cvc5::internal::Minisat::Lit", ptr %2, i32 0, i32 0
  store i32 %0, ptr %3, align 4
  %4 = getelementptr inbounds nuw %"struct.cvc5::internal::Minisat::Lit", ptr %2, i32 0, i32 0
  %5 = load i32, ptr %4, align 4, !tbaa !217
  %6 = ashr i32 %5, 1
  ret i32 %6
}

; Function Attrs: mustprogress nounwind uwtable
define linkonce_odr hidden noundef zeroext i1 @_ZNK4cvc58internal7Minisat5lbooleqES2_(ptr noundef nonnull align 1 dereferenceable(1) %0, i8 %1) #4 comdat align 2 {
  %3 = alloca %"class.cvc5::internal::Minisat::lbool", align 1
  %4 = alloca ptr, align 8
  %5 = getelementptr inbounds nuw %"class.cvc5::internal::Minisat::lbool", ptr %3, i32 0, i32 0
  store i8 %1, ptr %5, align 1
  store ptr %0, ptr %4, align 8, !tbaa !227
  %6 = load ptr, ptr %4, align 8
  %7 = getelementptr inbounds nuw %"class.cvc5::internal::Minisat::lbool", ptr %3, i32 0, i32 0
  %8 = load i8, ptr %7, align 1, !tbaa !228
  %9 = zext i8 %8 to i32
  %10 = and i32 %9, 2
  %11 = getelementptr inbounds nuw %"class.cvc5::internal::Minisat::lbool", ptr %6, i32 0, i32 0
  %12 = load i8, ptr %11, align 1, !tbaa !228
  %13 = zext i8 %12 to i32
  %14 = and i32 %13, 2
  %15 = and i32 %10, %14
  %16 = getelementptr inbounds nuw %"class.cvc5::internal::Minisat::lbool", ptr %3, i32 0, i32 0
  %17 = load i8, ptr %16, align 1, !tbaa !228
  %18 = zext i8 %17 to i32
  %19 = and i32 %18, 2
  %20 = icmp ne i32 %19, 0
  %21 = xor i1 %20, true
  %22 = zext i1 %21 to i32
  %23 = getelementptr inbounds nuw %"class.cvc5::internal::Minisat::lbool", ptr %6, i32 0, i32 0
  %24 = load i8, ptr %23, align 1, !tbaa !228
  %25 = zext i8 %24 to i32
  %26 = getelementptr inbounds nuw %"class.cvc5::internal::Minisat::lbool", ptr %3, i32 0, i32 0
  %27 = load i8, ptr %26, align 1, !tbaa !228
  %28 = zext i8 %27 to i32
  %29 = icmp eq i32 %25, %28
  %30 = zext i1 %29 to i32
  %31 = and i32 %22, %30
  %32 = or i32 %15, %31
  %33 = icmp ne i32 %32, 0
  ret i1 %33
}

; Function Attrs: mustprogress nounwind uwtable
define linkonce_odr hidden void @_ZN4cvc58internal7Minisat5lboolC2Eh(ptr noundef nonnull align 1 dereferenceable(1) %0, i8 noundef zeroext %1) unnamed_addr #4 comdat align 2 {
  %3 = alloca ptr, align 8
  %4 = alloca i8, align 1
  store ptr %0, ptr %3, align 8, !tbaa !227
  store i8 %1, ptr %4, align 1, !tbaa !207
  %5 = load ptr, ptr %3, align 8
  %6 = getelementptr inbounds nuw %"class.cvc5::internal::Minisat::lbool", ptr %5, i32 0, i32 0
  %7 = load i8, ptr %4, align 1, !tbaa !207
  store i8 %7, ptr %6, align 1, !tbaa !228
  ret void
}

; Function Attrs: inlinehint mustprogress uwtable
define linkonce_odr hidden i8 @_ZNK4cvc58internal7Minisat6Solver5valueENS1_3LitE(ptr noundef nonnull align 8 dereferenceable(850) %0, i32 %1) #10 comdat align 2 {
  %3 = alloca %"class.cvc5::internal::Minisat::lbool", align 1
  %4 = alloca %"struct.cvc5::internal::Minisat::Lit", align 4
  %5 = alloca ptr, align 8
  %6 = alloca %"struct.cvc5::internal::Minisat::Lit", align 4
  %7 = alloca %"struct.cvc5::internal::Minisat::Lit", align 4
  %8 = getelementptr inbounds nuw %"struct.cvc5::internal::Minisat::Lit", ptr %4, i32 0, i32 0
  store i32 %1, ptr %8, align 4
  store ptr %0, ptr %5, align 8, !tbaa !53
  %9 = load ptr, ptr %5, align 8
  %10 = getelementptr inbounds nuw %"class.cvc5::internal::Minisat::Solver", ptr %9, i32 0, i32 59
  call void @llvm.memcpy.p0.p0.i64(ptr align 4 %6, ptr align 4 %4, i64 4, i1 false), !tbaa.struct !212
  %11 = getelementptr inbounds nuw %"struct.cvc5::internal::Minisat::Lit", ptr %6, i32 0, i32 0
  %12 = load i32, ptr %11, align 4
  %13 = call noundef i32 @_ZN4cvc58internal7Minisat3varENS1_3LitE(i32 %12)
  %14 = call noundef nonnull align 1 dereferenceable(1) ptr @_ZNK4cvc58internal7Minisat3vecINS1_5lboolEEixEi(ptr noundef nonnull align 8 dereferenceable(16) %10, i32 noundef %13)
  call void @llvm.memcpy.p0.p0.i64(ptr align 4 %7, ptr align 4 %4, i64 4, i1 false), !tbaa.struct !212
  %15 = getelementptr inbounds nuw %"struct.cvc5::internal::Minisat::Lit", ptr %7, i32 0, i32 0
  %16 = load i32, ptr %15, align 4
  %17 = call noundef zeroext i1 @_ZN4cvc58internal7Minisat4signENS1_3LitE(i32 %16)
  %18 = call i8 @_ZNK4cvc58internal7Minisat5lbooleoEb(ptr noundef nonnull align 1 dereferenceable(1) %14, i1 noundef zeroext %17)
  %19 = getelementptr inbounds nuw %"class.cvc5::internal::Minisat::lbool", ptr %3, i32 0, i32 0
  store i8 %18, ptr %19, align 1
  %20 = getelementptr inbounds nuw %"class.cvc5::internal::Minisat::lbool", ptr %3, i32 0, i32 0
  %21 = load i8, ptr %20, align 1
  ret i8 %21
}

; Function Attrs: mustprogress nounwind uwtable
define linkonce_odr hidden i32 @_ZNK4cvc58internal7Minisat6ClauseixEi(ptr noundef nonnull align 4 dereferenceable(8) %0, i32 noundef %1) #4 comdat align 2 {
  %3 = alloca %"struct.cvc5::internal::Minisat::Lit", align 4
  %4 = alloca ptr, align 8
  %5 = alloca i32, align 4
  store ptr %0, ptr %4, align 8, !tbaa !283
  store i32 %1, ptr %5, align 4, !tbaa !37
  %6 = load ptr, ptr %4, align 8
  %7 = getelementptr inbounds nuw %"class.cvc5::internal::Minisat::Clause", ptr %6, i32 0, i32 1
  %8 = load i32, ptr %5, align 4, !tbaa !37
  %9 = sext i32 %8 to i64
  %10 = getelementptr inbounds [0 x %union.anon.431], ptr %7, i64 0, i64 %9
  call void @llvm.memcpy.p0.p0.i64(ptr align 4 %3, ptr align 4 %10, i64 4, i1 false), !tbaa.struct !212
  %11 = getelementptr inbounds nuw %"struct.cvc5::internal::Minisat::Lit", ptr %3, i32 0, i32 0
  %12 = load i32, ptr %11, align 4
  ret i32 %12
}

; Function Attrs: mustprogress nounwind uwtable
define linkonce_odr hidden noundef i32 @_ZNK4cvc58internal7Minisat6Clause4sizeEv(ptr noundef nonnull align 4 dereferenceable(8) %0) #4 comdat align 2 {
  %2 = alloca ptr, align 8
  store ptr %0, ptr %2, align 8, !tbaa !283
  %3 = load ptr, ptr %2, align 8
  %4 = getelementptr inbounds nuw %"class.cvc5::internal::Minisat::Clause", ptr %3, i32 0, i32 0
  %5 = load i64, ptr %4, align 4
  %6 = lshr i64 %5, 5
  %7 = and i64 %6, 134217727
  %8 = trunc i64 %7 to i32
  ret i32 %8
}

; Function Attrs: mustprogress uwtable
define hidden noundef zeroext i1 @_ZNK4cvc58internal7Minisat6Solver9satisfiedERKNS1_6ClauseE(ptr noundef nonnull align 8 dereferenceable(850) %0, ptr noundef nonnull align 4 dereferenceable(8) %1) #6 align 2 {
  %3 = alloca i1, align 1
  %4 = alloca ptr, align 8
  %5 = alloca ptr, align 8
  %6 = alloca i32, align 4
  %7 = alloca i32, align 4
  %8 = alloca %"class.cvc5::internal::Minisat::lbool", align 1
  %9 = alloca %"struct.cvc5::internal::Minisat::Lit", align 4
  %10 = alloca %"class.cvc5::internal::Minisat::lbool", align 1
  store ptr %0, ptr %4, align 8, !tbaa !53
  store ptr %1, ptr %5, align 8, !tbaa !283
  %11 = load ptr, ptr %4, align 8
  call void @llvm.lifetime.start.p0(i64 4, ptr %6) #3
  store i32 0, ptr %6, align 4, !tbaa !37
  br label %12

12:                                               ; preds = %32, %2
  %13 = load i32, ptr %6, align 4, !tbaa !37
  %14 = load ptr, ptr %5, align 8, !tbaa !283
  %15 = call noundef i32 @_ZNK4cvc58internal7Minisat6Clause4sizeEv(ptr noundef nonnull align 4 dereferenceable(8) %14)
  %16 = icmp slt i32 %13, %15
  br i1 %16, label %18, label %17

17:                                               ; preds = %12
  store i32 2, ptr %7, align 4
  br label %35

18:                                               ; preds = %12
  call void @llvm.lifetime.start.p0(i64 1, ptr %8) #3
  %19 = load ptr, ptr %5, align 8, !tbaa !283
  %20 = load i32, ptr %6, align 4, !tbaa !37
  %21 = call i32 @_ZNK4cvc58internal7Minisat6ClauseixEi(ptr noundef nonnull align 4 dereferenceable(8) %19, i32 noundef %20)
  %22 = getelementptr inbounds nuw %"struct.cvc5::internal::Minisat::Lit", ptr %9, i32 0, i32 0
  store i32 %21, ptr %22, align 4
  %23 = getelementptr inbounds nuw %"struct.cvc5::internal::Minisat::Lit", ptr %9, i32 0, i32 0
  %24 = load i32, ptr %23, align 4
  %25 = call i8 @_ZNK4cvc58internal7Minisat6Solver5valueENS1_3LitE(ptr noundef nonnull align 8 dereferenceable(850) %11, i32 %24)
  %26 = getelementptr inbounds nuw %"class.cvc5::internal::Minisat::lbool", ptr %8, i32 0, i32 0
  store i8 %25, ptr %26, align 1
  call void @_ZN4cvc58internal7Minisat5lboolC2Eh(ptr noundef nonnull align 1 dereferenceable(1) %10, i8 noundef zeroext 0)
  %27 = getelementptr inbounds nuw %"class.cvc5::internal::Minisat::lbool", ptr %10, i32 0, i32 0
  %28 = load i8, ptr %27, align 1
  %29 = call noundef zeroext i1 @_ZNK4cvc58internal7Minisat5lbooleqES2_(ptr noundef nonnull align 1 dereferenceable(1) %8, i8 %28)
  call void @llvm.lifetime.end.p0(i64 1, ptr %8) #3
  br i1 %29, label %30, label %31

30:                                               ; preds = %18
  store i1 true, ptr %3, align 1
  store i32 1, ptr %7, align 4
  br label %35

31:                                               ; preds = %18
  br label %32

32:                                               ; preds = %31
  %33 = load i32, ptr %6, align 4, !tbaa !37
  %34 = add nsw i32 %33, 1
  store i32 %34, ptr %6, align 4, !tbaa !37
  br label %12, !llvm.loop !552

35:                                               ; preds = %30, %17
  call void @llvm.lifetime.end.p0(i64 4, ptr %6) #3
  %36 = load i32, ptr %7, align 4
  switch i32 %36, label %40 [
    i32 2, label %37
    i32 1, label %38
  ]

37:                                               ; preds = %35
  store i1 false, ptr %3, align 1
  br label %38

38:                                               ; preds = %37, %35
  %39 = load i1, ptr %3, align 1
  ret i1 %39

40:                                               ; preds = %35
  unreachable
}