; Function Attrs: mustprogress nofree norecurse nosync nounwind willreturn memory(read, inaccessiblemem: none) uwtable
define hidden noundef zeroext i1 @_ZNK4cvc58internal7Minisat6Solver9satisfiedERKNS1_6ClauseE(ptr noundef nonnull readonly align 8 captures(none) dereferenceable(850) %0, ptr noundef nonnull readonly align 4 captures(none) dereferenceable(8) %1) local_unnamed_addr #9 align 2 {
  %3 = getelementptr inbounds nuw i8, ptr %1, i64 8
  %4 = load i64, ptr %1, align 4
  %5 = and i64 %4, 4294967264
  %.not10.not = icmp eq i64 %5, 0
  br i1 %.not10.not, label %._crit_edge, label %.lr.ph

.lr.ph:                                           ; preds = %2
  %6 = lshr i64 %4, 5
  %7 = getelementptr inbounds nuw i8, ptr %0, i64 472
  %8 = load ptr, ptr %7, align 8, !tbaa !90
  %wide.trip.count = and i64 %6, 134217727
  br label %9

9:                                                ; preds = %9, %.lr.ph
  %indvars.iv = phi i64 [ 0, %.lr.ph ], [ %indvars.iv.next, %9 ]
  %10 = getelementptr inbounds nuw [0 x %union.anon.431], ptr %3, i64 0, i64 %indvars.iv
  %.sroa.0.0.copyload.i = load i32, ptr %10, align 4, !tbaa !66
  %11 = ashr i32 %.sroa.0.0.copyload.i, 1
  %12 = sext i32 %11 to i64
  %13 = getelementptr inbounds %"class.cvc5::internal::Minisat::lbool", ptr %8, i64 %12
  %14 = load i8, ptr %13, align 1, !tbaa !373
  %15 = trunc i32 %.sroa.0.0.copyload.i to i8
  %16 = and i8 %15, 1
  %17 = icmp eq i8 %14, %16
  %indvars.iv.next = add nuw nsw i64 %indvars.iv, 1
  %exitcond.not = icmp eq i64 %indvars.iv.next, %wide.trip.count
  %or.cond = select i1 %17, i1 true, i1 %exitcond.not
  br i1 %or.cond, label %._crit_edge, label %9, !llvm.loop !394

._crit_edge:                                      ; preds = %9, %2
  %.not.lcssa = phi i1 [ false, %2 ], [ %17, %9 ]
  ret i1 %.not.lcssa
}